target datalayout = "e-m:e-p270:32:32-p271:32:32-p272:64:64-i64:64-i128:128-f80:128-n8:16:32:64-S128"
target triple = "x86_64-pc-linux-gnu"

%struct.Ses_Man_t_ = type { ptr, ptr, i32, i32, i32, i32, i32, i32, i32, ptr, [8 x i32], i32, i32, i32, i32, i32, i32, i32, i32, i32, [4 x i64], ptr, ptr, i32, i32, i32, i32, i32, i32, i32, ptr, [8 x i32], [100 x i64], i32, i32, i32, i32, i32, i32, i32, i32, i32, i32, i32, i64, i64, i64, i64, i64, i64, i32, i32, i32, i32 }

@.str.22 = private unnamed_addr constant [20 x i8] c"Runtime breakdown:\0A\00", align 1
@.str.23 = private unnamed_addr constant [5 x i8] c"%s =\00", align 1
@.str.25 = private unnamed_addr constant [22 x i8] c"%9.2f sec (%6.2f %%)\0A\00", align 1
@.str.79 = private unnamed_addr constant [9 x i8] c"Sat     \00", align 1
@.str.80 = private unnamed_addr constant [9 x i8] c" Sat    \00", align 1
@.str.81 = private unnamed_addr constant [9 x i8] c" Unsat  \00", align 1
@.str.82 = private unnamed_addr constant [9 x i8] c" Undef  \00", align 1
@.str.83 = private unnamed_addr constant [9 x i8] c"Instance\00", align 1
@.str.84 = private unnamed_addr constant [9 x i8] c"ALL     \00", align 1

; Function Attrs: nounwind uwtable
define internal void @Ses_ManPrintRuntime(ptr noundef %0) #0 {
  %2 = alloca ptr, align 8
  store ptr %0, ptr %2, align 8, !tbaa !66
  %3 = call i32 (ptr, ...) @printf(ptr noundef @.str.22)
  call void (i32, ptr, ...) @Abc_Print(i32 noundef 1, ptr noundef @.str.23, ptr noundef @.str.79)
  %4 = load ptr, ptr %2, align 8, !tbaa !66
  %5 = getelementptr inbounds nuw %struct.Ses_Man_t_, ptr %4, i32 0, i32 44
  %6 = load i64, ptr %5, align 8, !tbaa !122
  %7 = sitofp i64 %6 to double
  %8 = fmul double 1.000000e+00, %7
  %9 = fdiv double %8, 1.000000e+06
  %10 = load ptr, ptr %2, align 8, !tbaa !66
  %11 = getelementptr inbounds nuw %struct.Ses_Man_t_, ptr %10, i32 0, i32 49
  %12 = load i64, ptr %11, align 8, !tbaa !72
  %13 = sitofp i64 %12 to double
  %14 = fcmp une double %13, 0.000000e+00
  br i1 %14, label %15, label %26

15:                                               ; preds = %1
  %16 = load ptr, ptr %2, align 8, !tbaa !66
  %17 = getelementptr inbounds nuw %struct.Ses_Man_t_, ptr %16, i32 0, i32 44
  %18 = load i64, ptr %17, align 8, !tbaa !122
  %19 = sitofp i64 %18 to double
  %20 = fmul double 1.000000e+02, %19
  %21 = load ptr, ptr %2, align 8, !tbaa !66
  %22 = getelementptr inbounds nuw %struct.Ses_Man_t_, ptr %21, i32 0, i32 49
  %23 = load i64, ptr %22, align 8, !tbaa !72
  %24 = sitofp i64 %23 to double
  %25 = fdiv double %20, %24
  br label %27

26:                                               ; preds = %1
  br label %27

27:                                               ; preds = %26, %15
  %28 = phi double [ %25, %15 ], [ 0.000000e+00, %26 ]
  call void (i32, ptr, ...) @Abc_Print(i32 noundef 1, ptr noundef @.str.25, double noundef %9, double noundef %28)
  call void (i32, ptr, ...) @Abc_Print(i32 noundef 1, ptr noundef @.str.23, ptr noundef @.str.80)
  %29 = load ptr, ptr %2, align 8, !tbaa !66
  %30 = getelementptr inbounds nuw %struct.Ses_Man_t_, ptr %29, i32 0, i32 45
  %31 = load i64, ptr %30, align 8, !tbaa !123
  %32 = sitofp i64 %31 to double
  %33 = fmul double 1.000000e+00, %32
  %34 = fdiv double %33, 1.000000e+06
  %35 = load ptr, ptr %2, align 8, !tbaa !66
  %36 = getelementptr inbounds nuw %struct.Ses_Man_t_, ptr %35, i32 0, i32 49
  %37 = load i64, ptr %36, align 8, !tbaa !72
  %38 = sitofp i64 %37 to double
  %39 = fcmp une double %38, 0.000000e+00
  br i1 %39, label %40, label %51

40:                                               ; preds = %27
  %41 = load ptr, ptr %2, align 8, !tbaa !66
  %42 = getelementptr inbounds nuw %struct.Ses_Man_t_, ptr %41, i32 0, i32 45
  %43 = load i64, ptr %42, align 8, !tbaa !123
  %44 = sitofp i64 %43 to double
  %45 = fmul double 1.000000e+02, %44
  %46 = load ptr, ptr %2, align 8, !tbaa !66
  %47 = getelementptr inbounds nuw %struct.Ses_Man_t_, ptr %46, i32 0, i32 49
  %48 = load i64, ptr %47, align 8, !tbaa !72
  %49 = sitofp i64 %48 to double
  %50 = fdiv double %45, %49
  br label %52

51:                                               ; preds = %27
  br label %52

52:                                               ; preds = %51, %40
  %53 = phi double [ %50, %40 ], [ 0.000000e+00, %51 ]
  call void (i32, ptr, ...) @Abc_Print(i32 noundef 1, ptr noundef @.str.25, double noundef %34, double noundef %53)
  call void (i32, ptr, ...) @Abc_Print(i32 noundef 1, ptr noundef @.str.23, ptr noundef @.str.81)
  %54 = load ptr, ptr %2, align 8, !tbaa !66
  %55 = getelementptr inbounds nuw %struct.Ses_Man_t_, ptr %54, i32 0, i32 46
  %56 = load i64, ptr %55, align 8, !tbaa !124
  %57 = sitofp i64 %56 to double
  %58 = fmul double 1.000000e+00, %57
  %59 = fdiv double %58, 1.000000e+06
  %60 = load ptr, ptr %2, align 8, !tbaa !66
  %61 = getelementptr inbounds nuw %struct.Ses_Man_t_, ptr %60, i32 0, i32 49
  %62 = load i64, ptr %61, align 8, !tbaa !72
  %63 = sitofp i64 %62 to double
  %64 = fcmp une double %63, 0.000000e+00
  br i1 %64, label %65, label %76

65:                                               ; preds = %52
  %66 = load ptr, ptr %2, align 8, !tbaa !66
  %67 = getelementptr inbounds nuw %struct.Ses_Man_t_, ptr %66, i32 0, i32 46
  %68 = load i64, ptr %67, align 8, !tbaa !124
  %69 = sitofp i64 %68 to double
  %70 = fmul double 1.000000e+02, %69
  %71 = load ptr, ptr %2, align 8, !tbaa !66
  %72 = getelementptr inbounds nuw %struct.Ses_Man_t_, ptr %71, i32 0, i32 49
  %73 = load i64, ptr %72, align 8, !tbaa !72
  %74 = sitofp i64 %73 to double
  %75 = fdiv double %70, %74
  br label %77

76:                                               ; preds = %52
  br label %77

77:                                               ; preds = %76, %65
  %78 = phi double [ %75, %65 ], [ 0.000000e+00, %76 ]
  call void (i32, ptr, ...) @Abc_Print(i32 noundef 1, ptr noundef @.str.25, double noundef %59, double noundef %78)
  call void (i32, ptr, ...) @Abc_Print(i32 noundef 1, ptr noundef @.str.23, ptr noundef @.str.82)
  %79 = load ptr, ptr %2, align 8, !tbaa !66
  %80 = getelementptr inbounds nuw %struct.Ses_Man_t_, ptr %79, i32 0, i32 47
  %81 = load i64, ptr %80, align 8, !tbaa !125
  %82 = sitofp i64 %81 to double
  %83 = fmul double 1.000000e+00, %82
  %84 = fdiv double %83, 1.000000e+06
  %85 = load ptr, ptr %2, align 8, !tbaa !66
  %86 = getelementptr inbounds nuw %struct.Ses_Man_t_, ptr %85, i32 0, i32 49
  %87 = load i64, ptr %86, align 8, !tbaa !72
  %88 = sitofp i64 %87 to double
  %89 = fcmp une double %88, 0.000000e+00
  br i1 %89, label %90, label %101

90:                                               ; preds = %77
  %91 = load ptr, ptr %2, align 8, !tbaa !66
  %92 = getelementptr inbounds nuw %struct.Ses_Man_t_, ptr %91, i32 0, i32 47
  %93 = load i64, ptr %92, align 8, !tbaa !125
  %94 = sitofp i64 %93 to double
  %95 = fmul double 1.000000e+02, %94
  %96 = load ptr, ptr %2, align 8, !tbaa !66
  %97 = getelementptr inbounds nuw %struct.Ses_Man_t_, ptr %96, i32 0, i32 49
  %98 = load i64, ptr %97, align 8, !tbaa !72
  %99 = sitofp i64 %98 to double
  %100 = fdiv double %95, %99
  br label %102

101:                                              ; preds = %77
  br label %102

102:                                              ; preds = %101, %90
  %103 = phi double [ %100, %90 ], [ 0.000000e+00, %101 ]
  call void (i32, ptr, ...) @Abc_Print(i32 noundef 1, ptr noundef @.str.25, double noundef %84, double noundef %103)
  call void (i32, ptr, ...) @Abc_Print(i32 noundef 1, ptr noundef @.str.23, ptr noundef @.str.83)
  %104 = load ptr, ptr %2, align 8, !tbaa !66
  %105 = getelementptr inbounds nuw %struct.Ses_Man_t_, ptr %104, i32 0, i32 48
  %106 = load i64, ptr %105, align 8, !tbaa !126
  %107 = sitofp i64 %106 to double
  %108 = fmul double 1.000000e+00, %107
  %109 = fdiv double %108, 1.000000e+06
  %110 = load ptr, ptr %2, align 8, !tbaa !66
  %111 = getelementptr inbounds nuw %struct.Ses_Man_t_, ptr %110, i32 0, i32 49
  %112 = load i64, ptr %111, align 8, !tbaa !72
  %113 = sitofp i64 %112 to double
  %114 = fcmp une double %113, 0.000000e+00
  br i1 %114, label %115, label %126

115:                                              ; preds = %102
  %116 = load ptr, ptr %2, align 8, !tbaa !66
  %117 = getelementptr inbounds nuw %struct.Ses_Man_t_, ptr %116, i32 0, i32 48
  %118 = load i64, ptr %117, align 8, !tbaa !126
  %119 = sitofp i64 %118 to double
  %120 = fmul double 1.000000e+02, %119
  %121 = load ptr, ptr %2, align 8, !tbaa !66
  %122 = getelementptr inbounds nuw %struct.Ses_Man_t_, ptr %121, i32 0, i32 49
  %123 = load i64, ptr %122, align 8, !tbaa !72
  %124 = sitofp i64 %123 to double
  %125 = fdiv double %120, %124
  br label %127

126:                                              ; preds = %102
  br label %127

127:                                              ; preds = %126, %115
  %128 = phi double [ %125, %115 ], [ 0.000000e+00, %126 ]
  call void (i32, ptr, ...) @Abc_Print(i32 noundef 1, ptr noundef @.str.25, double noundef %109, double noundef %128)
  call void (i32, ptr, ...) @Abc_Print(i32 noundef 1, ptr noundef @.str.23, ptr noundef @.str.84)
  %129 = load ptr, ptr %2, align 8, !tbaa !66
  %130 = getelementptr inbounds nuw %struct.Ses_Man_t_, ptr %129, i32 0, i32 49
  %131 = load i64, ptr %130, align 8, !tbaa !72
  %132 = sitofp i64 %131 to double
  %133 = fmul double 1.000000e+00, %132
  %134 = fdiv double %133, 1.000000e+06
  %135 = load ptr, ptr %2, align 8, !tbaa !66
  %136 = getelementptr inbounds nuw %struct.Ses_Man_t_, ptr %135, i32 0, i32 49
  %137 = load i64, ptr %136, align 8, !tbaa !72
  %138 = sitofp i64 %137 to double
  %139 = fcmp une double %138, 0.000000e+00
  br i1 %139, label %140, label %151

140:                                              ; preds = %127
  %141 = load ptr, ptr %2, align 8, !tbaa !66
  %142 = getelementptr inbounds nuw %struct.Ses_Man_t_, ptr %141, i32 0, i32 49
  %143 = load i64, ptr %142, align 8, !tbaa !72
  %144 = sitofp i64 %143 to double
  %145 = fmul double 1.000000e+02, %144
  %146 = load ptr, ptr %2, align 8, !tbaa !66
  %147 = getelementptr inbounds nuw %struct.Ses_Man_t_, ptr %146, i32 0, i32 49
  %148 = load i64, ptr %147, align 8, !tbaa !72
  %149 = sitofp i64 %148 to double
  %150 = fdiv double %145, %149
  br label %152

151:                                              ; preds = %127
  br label %152

152:                                              ; preds = %151, %140
  %153 = phi double [ %150, %140 ], [ 0.000000e+00, %151 ]
  call void (i32, ptr, ...) @Abc_Print(i32 noundef 1, ptr noundef @.str.25, double noundef %134, double noundef %153)
  ret void
}