; Function Attrs: nounwind uwtable
define internal fastcc void @Ses_ManPrintRuntime(ptr noundef readonly captures(none) %0) unnamed_addr #0 {
  %puts = tail call i32 @puts(ptr nonnull dereferenceable(1) @str.11)
  tail call void (i32, ptr, ...) @Abc_Print(i32 poison, ptr noundef nonnull @.str.23, ptr noundef nonnull @.str.79)
  %2 = getelementptr inbounds nuw i8, ptr %0, i64 1096
  %3 = load i64, ptr %2, align 8, !tbaa !135
  %4 = sitofp i64 %3 to double
  %5 = fdiv double %4, 1.000000e+06
  %6 = getelementptr inbounds nuw i8, ptr %0, i64 1136
  %7 = load i64, ptr %6, align 8, !tbaa !90
  %.not = icmp eq i64 %7, 0
  %8 = sitofp i64 %7 to double
  %9 = fmul double %4, 1.000000e+02
  %10 = fdiv double %9, %8
  %11 = select i1 %.not, double 0.000000e+00, double %10
  tail call void (i32, ptr, ...) @Abc_Print(i32 poison, ptr noundef nonnull @.str.25, double noundef %5, double noundef %11)
  tail call void (i32, ptr, ...) @Abc_Print(i32 poison, ptr noundef nonnull @.str.23, ptr noundef nonnull @.str.80)
  %12 = getelementptr inbounds nuw i8, ptr %0, i64 1104
  %13 = load i64, ptr %12, align 8, !tbaa !136
  %14 = sitofp i64 %13 to double
  %15 = fdiv double %14, 1.000000e+06
  %16 = load i64, ptr %6, align 8, !tbaa !90
  %.not29 = icmp eq i64 %16, 0
  %17 = sitofp i64 %16 to double
  %18 = fmul double %14, 1.000000e+02
  %19 = fdiv double %18, %17
  %20 = select i1 %.not29, double 0.000000e+00, double %19
  tail call void (i32, ptr, ...) @Abc_Print(i32 poison, ptr noundef nonnull @.str.25, double noundef %15, double noundef %20)
  tail call void (i32, ptr, ...) @Abc_Print(i32 poison, ptr noundef nonnull @.str.23, ptr noundef nonnull @.str.81)
  %21 = getelementptr inbounds nuw i8, ptr %0, i64 1112
  %22 = load i64, ptr %21, align 8, !tbaa !137
  %23 = sitofp i64 %22 to double
  %24 = fdiv double %23, 1.000000e+06
  %25 = load i64, ptr %6, align 8, !tbaa !90
  %.not30 = icmp eq i64 %25, 0
  %26 = sitofp i64 %25 to double
  %27 = fmul double %23, 1.000000e+02
  %28 = fdiv double %27, %26
  %29 = select i1 %.not30, double 0.000000e+00, double %28
  tail call void (i32, ptr, ...) @Abc_Print(i32 poison, ptr noundef nonnull @.str.25, double noundef %24, double noundef %29)
  tail call void (i32, ptr, ...) @Abc_Print(i32 poison, ptr noundef nonnull @.str.23, ptr noundef nonnull @.str.82)
  %30 = getelementptr inbounds nuw i8, ptr %0, i64 1120
  %31 = load i64, ptr %30, align 8, !tbaa !138
  %32 = sitofp i64 %31 to double
  %33 = fdiv double %32, 1.000000e+06
  %34 = load i64, ptr %6, align 8, !tbaa !90
  %.not31 = icmp eq i64 %34, 0
  %35 = sitofp i64 %34 to double
  %36 = fmul double %32, 1.000000e+02
  %37 = fdiv double %36, %35
  %38 = select i1 %.not31, double 0.000000e+00, double %37
  tail call void (i32, ptr, ...) @Abc_Print(i32 poison, ptr noundef nonnull @.str.25, double noundef %33, double noundef %38)
  tail call void (i32, ptr, ...) @Abc_Print(i32 poison, ptr noundef nonnull @.str.23, ptr noundef nonnull @.str.83)
  %39 = getelementptr inbounds nuw i8, ptr %0, i64 1128
  %40 = load i64, ptr %39, align 8, !tbaa !139
  %41 = sitofp i64 %40 to double
  %42 = fdiv double %41, 1.000000e+06
  %43 = load i64, ptr %6, align 8, !tbaa !90
  %.not32 = icmp eq i64 %43, 0
  %44 = sitofp i64 %43 to double
  %45 = fmul double %41, 1.000000e+02
  %46 = fdiv double %45, %44
  %47 = select i1 %.not32, double 0.000000e+00, double %46
  tail call void (i32, ptr, ...) @Abc_Print(i32 poison, ptr noundef nonnull @.str.25, double noundef %42, double noundef %47)
  tail call void (i32, ptr, ...) @Abc_Print(i32 poison, ptr noundef nonnull @.str.23, ptr noundef nonnull @.str.84)
  %48 = load i64, ptr %6, align 8, !tbaa !90
  %49 = sitofp i64 %48 to double
  %.not33 = icmp eq i64 %48, 0
  %50 = fmul double %49, 1.000000e+02
  %51 = fdiv double %50, %49
  %52 = select i1 %.not33, double 0.000000e+00, double %51
  %53 = fdiv double %49, 1.000000e+06
  tail call void (i32, ptr, ...) @Abc_Print(i32 poison, ptr noundef nonnull @.str.25, double noundef %53, double noundef %52)
  ret void
}